; Function Attrs: mustprogress uwtable
define hidden void @_ZNK4cvc58internal6theory2fp14symfpuSymbolic19symbolicPropositionntEv(ptr dead_on_unwind noalias writable writeonly sret(%"class.cvc5::internal::theory::fp::symfpuSymbolic::symbolicProposition") align 8 captures(none) %0, ptr noundef nonnull readonly align 8 captures(none) dereferenceable(8) %1) local_unnamed_addr #3 align 2 personality ptr @__gxx_personality_v0 {
.noexc:
  %2 = alloca %"class.cvc5::internal::NodeBuilder", align 8
  %3 = alloca %"class.cvc5::internal::NodeTemplate.0", align 8
  %4 = alloca %"class.cvc5::internal::NodeTemplate", align 8
  %5 = load ptr, ptr %1, align 8, !tbaa !22
  call void @llvm.lifetime.start.p0(i64 8, ptr nonnull %3)
  call void @llvm.lifetime.start.p0(i64 128, ptr nonnull %2) #23, !noalias !43
  %6 = getelementptr inbounds nuw i8, ptr %5, i64 16
  %7 = load ptr, ptr %6, align 8, !tbaa !46, !noalias !43
  call void @_ZN4cvc58internal11NodeBuilderC1EPNS0_11NodeManagerENS0_4kind6Kind_tE(ptr noundef nonnull align 8 dereferenceable(124) %2, ptr noundef %7, i32 noundef 97)
  store ptr %5, ptr %3, align 8, !tbaa !28, !noalias !43
  %8 = invoke noundef nonnull align 8 dereferenceable(124) ptr @_ZN4cvc58internal11NodeBuilderlsENS0_12NodeTemplateILb0EEE(ptr noundef nonnull align 8 dereferenceable(124) %2, ptr noundef nonnull %3)
          to label %9 unwind label %12, !noalias !43

9:                                                ; preds = %.noexc
  invoke void @_ZN4cvc58internal11NodeBuilder13constructNodeEv(ptr dead_on_unwind nonnull writable sret(%"class.cvc5::internal::NodeTemplate") align 8 %4, ptr noundef nonnull align 8 dereferenceable(124) %2)
          to label %15 unwind label %10

10:                                               ; preds = %9
  %11 = landingpad { ptr, i32 }
          cleanup
  br label %14

12:                                               ; preds = %.noexc
  %13 = landingpad { ptr, i32 }
          cleanup
  br label %14

14:                                               ; preds = %12, %10
  %.pn.i = phi { ptr, i32 } [ %11, %10 ], [ %13, %12 ]
  call void @_ZN4cvc58internal11NodeBuilderD1Ev(ptr noundef nonnull align 8 dereferenceable(124) %2) #23
  call void @llvm.lifetime.end.p0(i64 128, ptr nonnull %2) #23, !noalias !43
  br label %.body

15:                                               ; preds = %9
  call void @_ZN4cvc58internal11NodeBuilderD1Ev(ptr noundef nonnull align 8 dereferenceable(124) %2) #23
  call void @llvm.lifetime.end.p0(i64 128, ptr nonnull %2) #23, !noalias !43
  call void @llvm.lifetime.end.p0(i64 8, ptr nonnull %3)
  %16 = load ptr, ptr %4, align 8, !tbaa !22
  store ptr %16, ptr %0, align 8, !tbaa !22
  %17 = load i64, ptr %16, align 8
  %18 = lshr i64 %17, 40
  %19 = trunc nuw nsw i64 %18 to i32
  %20 = and i32 %19, 1048575
  %21 = icmp samesign ult i32 %20, 1048574
  br i1 %21, label %22, label %27, !prof !24

22:                                               ; preds = %15
  %23 = add i64 %17, 1099511627776
  %24 = and i64 %23, 1152920405095219200
  %25 = and i64 %17, -1152920405095219201
  %26 = or disjoint i64 %24, %25
  store i64 %26, ptr %16, align 8
  br label %_ZN4cvc58internal6theory2fp14symfpuSymbolic19symbolicPropositionC2ENS0_12NodeTemplateILb1EEE.exit

27:                                               ; preds = %15
  %28 = icmp eq i32 %20, 1048574
  br i1 %28, label %29, label %_ZN4cvc58internal6theory2fp14symfpuSymbolic19symbolicPropositionC2ENS0_12NodeTemplateILb1EEE.exit, !prof !9

29:                                               ; preds = %27
  %30 = or i64 %17, 1152920405095219200
  store i64 %30, ptr %16, align 8
  invoke void @_ZN4cvc58internal4expr9NodeValue20markRefCountMaxedOutEv(ptr noundef nonnull align 8 dereferenceable(24) %16)
          to label %_ZN4cvc58internal6theory2fp14symfpuSymbolic19symbolicPropositionC2ENS0_12NodeTemplateILb1EEE.exit unwind label %44

_ZN4cvc58internal6theory2fp14symfpuSymbolic19symbolicPropositionC2ENS0_12NodeTemplateILb1EEE.exit: ; preds = %27, %22, %29
  %31 = load ptr, ptr %4, align 8, !tbaa !22
  %32 = load i64, ptr %31, align 8
  %33 = and i64 %32, 1152920405095219200
  %.not.i.i = icmp eq i64 %33, 1152920405095219200
  br i1 %.not.i.i, label %_ZN4cvc58internal12NodeTemplateILb1EED2Ev.exit, label %34, !prof !9

34:                                               ; preds = %_ZN4cvc58internal6theory2fp14symfpuSymbolic19symbolicPropositionC2ENS0_12NodeTemplateILb1EEE.exit
  %35 = add i64 %32, 1152920405095219200
  %36 = and i64 %35, 1152920405095219200
  %37 = and i64 %32, -1152920405095219201
  %38 = or disjoint i64 %36, %37
  store i64 %38, ptr %31, align 8
  %39 = icmp eq i64 %36, 0
  br i1 %39, label %40, label %_ZN4cvc58internal12NodeTemplateILb1EED2Ev.exit, !prof !9

40:                                               ; preds = %34
  invoke void @_ZN4cvc58internal4expr9NodeValue15markForDeletionEv(ptr noundef nonnull align 8 dereferenceable(24) %31)
          to label %_ZN4cvc58internal12NodeTemplateILb1EED2Ev.exit unwind label %41

41:                                               ; preds = %40
  %42 = landingpad { ptr, i32 }
          catch ptr null
  %43 = extractvalue { ptr, i32 } %42, 0
  call void @__clang_call_terminate(ptr %43) #24
  unreachable

_ZN4cvc58internal12NodeTemplateILb1EED2Ev.exit:   ; preds = %_ZN4cvc58internal6theory2fp14symfpuSymbolic19symbolicPropositionC2ENS0_12NodeTemplateILb1EEE.exit, %34, %40
  ret void

44:                                               ; preds = %29
  %45 = landingpad { ptr, i32 }
          cleanup
  call void @_ZN4cvc58internal12NodeTemplateILb1EED2Ev(ptr noundef nonnull align 8 dereferenceable(8) %4) #23
  br label %.body

.body:                                            ; preds = %14, %44
  %.pn = phi { ptr, i32 } [ %45, %44 ], [ %.pn.i, %14 ]
  resume { ptr, i32 } %.pn
}